target datalayout = "e-m:e-p270:32:32-p271:32:32-p272:64:64-i64:64-i128:128-f80:128-n8:16:32:64-S128"
target triple = "x86_64-unknown-linux-gnu"

%"class.icu_75::QuantityFormatter" = type { [8 x ptr] }
%"class.icu_75::SimpleFormatter" = type { [8 x i8], %"class.icu_75::UnicodeString" }
%"class.icu_75::UnicodeString" = type { %"class.icu_75::Replaceable", %"union.icu_75::UnicodeString::StackBufferOrFields" }
%"class.icu_75::Replaceable" = type { %"class.icu_75::UObject" }
%"class.icu_75::UObject" = type { ptr }
%"union.icu_75::UnicodeString::StackBufferOrFields" = type { %struct.anon.0, [32 x i8] }
%struct.anon.0 = type { i16, i32, i32, ptr }

; Function Attrs: mustprogress uwtable
define linkonce_odr void @_ZN6icu_7515SimpleFormatterC2ERKS0_(ptr noundef nonnull align 8 dereferenceable(72) %this, ptr noundef nonnull align 8 dereferenceable(72) %other) unnamed_addr #1 comdat align 2 {
entry:
  %this.addr = alloca ptr, align 8
  %other.addr = alloca ptr, align 8
  store ptr %this, ptr %this.addr, align 8
  store ptr %other, ptr %other.addr, align 8
  %this1 = load ptr, ptr %this.addr, align 8
  %compiledPattern = getelementptr inbounds %"class.icu_75::SimpleFormatter", ptr %this1, i32 0, i32 1
  %0 = load ptr, ptr %other.addr, align 8
  %compiledPattern2 = getelementptr inbounds %"class.icu_75::SimpleFormatter", ptr %0, i32 0, i32 1
  call void @_ZN6icu_7513UnicodeStringC1ERKS0_(ptr noundef nonnull align 8 dereferenceable(64) %compiledPattern, ptr noundef nonnull align 8 dereferenceable(64) %compiledPattern2)
  ret void
}

; Function Attrs: mustprogress uwtable
define void @_ZN6icu_7517QuantityFormatterC2ERKS0_(ptr noundef nonnull align 8 dereferenceable(64) %this, ptr noundef nonnull align 8 dereferenceable(64) %other) unnamed_addr #1 align 2 personality ptr @__gxx_personality_v0 {
entry:
  %this.addr = alloca ptr, align 8
  %other.addr = alloca ptr, align 8
  %i = alloca i32, align 4
  %saved-rvalue = alloca ptr, align 8
  %cleanup.cond = alloca i1, align 1
  %exn.slot = alloca ptr, align 8
  %ehselector.slot = alloca i32, align 4
  store ptr %this, ptr %this.addr, align 8
  store ptr %other, ptr %other.addr, align 8
  %this1 = load ptr, ptr %this.addr, align 8
  store i32 0, ptr %i, align 4
  br label %for.cond

for.cond:                                         ; preds = %for.inc, %entry
  %0 = load i32, ptr %i, align 4
  %cmp = icmp slt i32 %0, 8
  br i1 %cmp, label %for.body, label %for.end

for.body:                                         ; preds = %for.cond
  %1 = load ptr, ptr %other.addr, align 8
  %formatters = getelementptr inbounds %"class.icu_75::QuantityFormatter", ptr %1, i32 0, i32 0
  %2 = load i32, ptr %i, align 4
  %idxprom = sext i32 %2 to i64
  %arrayidx = getelementptr inbounds [8 x ptr], ptr %formatters, i64 0, i64 %idxprom
  %3 = load ptr, ptr %arrayidx, align 8
  %cmp2 = icmp eq ptr %3, null
  br i1 %cmp2, label %if.then, label %if.else

if.then:                                          ; preds = %for.body
  %formatters3 = getelementptr inbounds %"class.icu_75::QuantityFormatter", ptr %this1, i32 0, i32 0
  %4 = load i32, ptr %i, align 4
  %idxprom4 = sext i32 %4 to i64
  %arrayidx5 = getelementptr inbounds [8 x ptr], ptr %formatters3, i64 0, i64 %idxprom4
  store ptr null, ptr %arrayidx5, align 8
  br label %if.end

if.else:                                          ; preds = %for.body
  %call = call noundef ptr @_ZN6icu_757UMemorynwEm(i64 noundef 72) #8
  %new.isnull = icmp eq ptr %call, null
  store i1 false, ptr %cleanup.cond, align 1
  br i1 %new.isnull, label %new.cont, label %new.notnull

new.notnull:                                      ; preds = %if.else
  store ptr %call, ptr %saved-rvalue, align 8
  store i1 true, ptr %cleanup.cond, align 1
  %5 = load ptr, ptr %other.addr, align 8
  %formatters6 = getelementptr inbounds %"class.icu_75::QuantityFormatter", ptr %5, i32 0, i32 0
  %6 = load i32, ptr %i, align 4
  %idxprom7 = sext i32 %6 to i64
  %arrayidx8 = getelementptr inbounds [8 x ptr], ptr %formatters6, i64 0, i64 %idxprom7
  %7 = load ptr, ptr %arrayidx8, align 8
  invoke void @_ZN6icu_7515SimpleFormatterC2ERKS0_(ptr noundef nonnull align 8 dereferenceable(72) %call, ptr noundef nonnull align 8 dereferenceable(72) %7)
          to label %invoke.cont unwind label %lpad

invoke.cont:                                      ; preds = %new.notnull
  br label %new.cont

new.cont:                                         ; preds = %invoke.cont, %if.else
  %8 = phi ptr [ %call, %invoke.cont ], [ null, %if.else ]
  %formatters9 = getelementptr inbounds %"class.icu_75::QuantityFormatter", ptr %this1, i32 0, i32 0
  %9 = load i32, ptr %i, align 4
  %idxprom10 = sext i32 %9 to i64
  %arrayidx11 = getelementptr inbounds [8 x ptr], ptr %formatters9, i64 0, i64 %idxprom10
  store ptr %8, ptr %arrayidx11, align 8
  br label %if.end

lpad:                                             ; preds = %new.notnull
  %10 = landingpad { ptr, i32 }
          cleanup
  %11 = extractvalue { ptr, i32 } %10, 0
  store ptr %11, ptr %exn.slot, align 8
  %12 = extractvalue { ptr, i32 } %10, 1
  store i32 %12, ptr %ehselector.slot, align 4
  %cleanup.is_active = load i1, ptr %cleanup.cond, align 1
  br i1 %cleanup.is_active, label %cleanup.action, label %cleanup.done

cleanup.action:                                   ; preds = %lpad
  %13 = load ptr, ptr %saved-rvalue, align 8
  call void @_ZN6icu_757UMemorydlEPv(ptr noundef %13) #8
  br label %cleanup.done

cleanup.done:                                     ; preds = %cleanup.action, %lpad
  br label %eh.resume

if.end:                                           ; preds = %new.cont, %if.then
  br label %for.inc

for.inc:                                          ; preds = %if.end
  %14 = load i32, ptr %i, align 4
  %inc = add nsw i32 %14, 1
  store i32 %inc, ptr %i, align 4
  br label %for.cond, !llvm.loop !6

for.end:                                          ; preds = %for.cond
  ret void

eh.resume:                                        ; preds = %cleanup.done
  %exn = load ptr, ptr %exn.slot, align 8
  %sel = load i32, ptr %ehselector.slot, align 4
  %lpad.val = insertvalue { ptr, i32 } poison, ptr %exn, 0
  %lpad.val12 = insertvalue { ptr, i32 } %lpad.val, i32 %sel, 1
  resume { ptr, i32 } %lpad.val12
}