; Function Attrs: mustprogress uwtable
define void @_ZN6icu_7517QuantityFormatterC2ERKS0_(ptr nocapture noundef nonnull writeonly align 8 dereferenceable(64) %this, ptr nocapture noundef nonnull readonly align 8 dereferenceable(64) %other) unnamed_addr #1 align 2 personality ptr @__gxx_personality_v0 {
entry:
  br label %for.body

for.body:                                         ; preds = %entry, %for.inc
  %indvars.iv = phi i64 [ 0, %entry ], [ %indvars.iv.next, %for.inc ]
  %arrayidx = getelementptr inbounds [8 x ptr], ptr %other, i64 0, i64 %indvars.iv
  %0 = load ptr, ptr %arrayidx, align 8
  %cmp2 = icmp eq ptr %0, null
  br i1 %cmp2, label %for.inc, label %if.else

if.else:                                          ; preds = %for.body
  %call = tail call noundef ptr @_ZN6icu_757UMemorynwEm(i64 noundef 72) #13
  %new.isnull = icmp eq ptr %call, null
  br i1 %new.isnull, label %for.inc, label %new.notnull

new.notnull:                                      ; preds = %if.else
  %1 = load ptr, ptr %arrayidx, align 8
  %compiledPattern.i = getelementptr inbounds i8, ptr %call, i64 8
  %compiledPattern2.i = getelementptr inbounds i8, ptr %1, i64 8
  invoke void @_ZN6icu_7513UnicodeStringC1ERKS0_(ptr noundef nonnull align 8 dereferenceable(64) %compiledPattern.i, ptr noundef nonnull align 8 dereferenceable(64) %compiledPattern2.i)
          to label %for.inc unwind label %lpad

lpad:                                             ; preds = %new.notnull
  %2 = landingpad { ptr, i32 }
          cleanup
  tail call void @_ZN6icu_757UMemorydlEPv(ptr noundef nonnull %call) #13
  resume { ptr, i32 } %2

for.inc:                                          ; preds = %if.else, %new.notnull, %for.body
  %.sink = phi ptr [ null, %for.body ], [ %call, %new.notnull ], [ %call, %if.else ]
  %arrayidx5 = getelementptr inbounds [8 x ptr], ptr %this, i64 0, i64 %indvars.iv
  store ptr %.sink, ptr %arrayidx5, align 8
  %indvars.iv.next = add nuw nsw i64 %indvars.iv, 1
  %exitcond.not = icmp eq i64 %indvars.iv.next, 8
  br i1 %exitcond.not, label %for.end, label %for.body, !llvm.loop !4

for.end:                                          ; preds = %for.inc
  ret void
}